; Function Attrs: mustprogress uwtable
define hidden void @_ZN4cvc58internal5proof18AlfPrintChannelOutC2ERSoRKNS0_10LetBindingERKNSt7__cxx1112basic_stringIcSt11char_traitsIcESaIcEEE(ptr noundef nonnull align 8 dereferenceable(112) %this, ptr noundef nonnull align 8 dereferenceable(8) %out, ptr noundef nonnull align 8 dereferenceable(472) %lbind, ptr noundef nonnull align 8 dereferenceable(32) %tprefix) unnamed_addr #3 align 2 personality ptr @__gxx_personality_v0 {
entry:
  store ptr getelementptr inbounds ({ [9 x ptr] }, ptr @_ZTVN4cvc58internal5proof18AlfPrintChannelOutE, i64 0, i32 0, i64 2), ptr %this, align 8
  %d_out = getelementptr inbounds i8, ptr %this, i64 8
  store ptr %out, ptr %d_out, align 8
  %d_lbind = getelementptr inbounds i8, ptr %this, i64 16
  store ptr %lbind, ptr %d_lbind, align 8
  %d_termLetPrefix = getelementptr inbounds i8, ptr %this, i64 24
  tail call void @_ZNSt7__cxx1112basic_stringIcSt11char_traitsIcESaIcEEC1ERKS4_(ptr noundef nonnull align 8 dereferenceable(32) %d_termLetPrefix, ptr noundef nonnull align 8 dereferenceable(32) %tprefix)
  %d_warnedRules = getelementptr inbounds i8, ptr %this, i64 56
  %_M_single_bucket.i.i = getelementptr inbounds i8, ptr %this, i64 104
  store ptr %_M_single_bucket.i.i, ptr %d_warnedRules, align 8
  %_M_bucket_count.i.i = getelementptr inbounds i8, ptr %this, i64 64
  store i64 1, ptr %_M_bucket_count.i.i, align 8
  %_M_before_begin.i.i = getelementptr inbounds i8, ptr %this, i64 72
  %_M_rehash_policy.i.i = getelementptr inbounds i8, ptr %this, i64 88
  tail call void @llvm.memset.p0.i64(ptr noundef nonnull align 8 dereferenceable(16) %_M_before_begin.i.i, i8 0, i64 16, i1 false)
  store float 1.000000e+00, ptr %_M_rehash_policy.i.i, align 8
  %_M_next_resize.i.i.i = getelementptr inbounds i8, ptr %this, i64 96
  tail call void @llvm.memset.p0.i64(ptr noundef nonnull align 8 dereferenceable(16) %_M_next_resize.i.i.i, i8 0, i64 16, i1 false)
  ret void
}